target datalayout = "e-m:e-p270:32:32-p271:32:32-p272:64:64-i64:64-i128:128-f80:128-n8:16:32:64-S128"
target triple = "x86_64-pc-linux-gnu"

%struct.sentinelState = type { [41 x i8], i64, ptr, i32, i32, i64, i64, ptr, ptr, i32, i64, i32, ptr, ptr, i32, i32 }
%struct.sentinelRedisInstance = type { i32, ptr, ptr, i64, ptr, ptr, i64, i64, i64, i64, i64, i64, i64, i64, i64, ptr, i32, i64, i64, ptr, ptr, i32, i32, ptr, ptr, i64, i32, i32, i64, ptr, ptr, i32, i32, i64, ptr, i64, i64, i32, i64, i64, i64, i64, ptr, ptr, ptr, ptr }
%struct.sentinelAddr = type { ptr, ptr, i32 }

@sentinel = dso_local global %struct.sentinelState zeroinitializer, align 8
@.str.39 = private unnamed_addr constant [7 x i8] c"leader\00", align 1
@.str.40 = private unnamed_addr constant [9 x i8] c"observer\00", align 1

; Function Attrs: nounwind uwtable
define dso_local ptr @announceSentinelAddr(ptr noundef %0) #0 {
  %2 = alloca ptr, align 8
  store ptr %0, ptr %2, align 8, !tbaa !94
  %3 = load i32, ptr getelementptr inbounds nuw (%struct.sentinelState, ptr @sentinel, i32 0, i32 15), align 4, !tbaa !78
  %4 = icmp ne i32 %3, 0
  br i1 %4, label %5, label %9

5:                                                ; preds = %1
  %6 = load ptr, ptr %2, align 8, !tbaa !94
  %7 = getelementptr inbounds nuw %struct.sentinelAddr, ptr %6, i32 0, i32 0
  %8 = load ptr, ptr %7, align 8, !tbaa !95
  br label %13

9:                                                ; preds = %1
  %10 = load ptr, ptr %2, align 8, !tbaa !94
  %11 = getelementptr inbounds nuw %struct.sentinelAddr, ptr %10, i32 0, i32 1
  %12 = load ptr, ptr %11, align 8, !tbaa !97
  br label %13

13:                                               ; preds = %9, %5
  %14 = phi ptr [ %8, %5 ], [ %12, %9 ]
  ret ptr %14
}

; Function Attrs: nounwind uwtable
define dso_local void @sentinelCallClientReconfScript(ptr noundef %0, i32 noundef %1, ptr noundef %2, ptr noundef %3, ptr noundef %4) #0 {
  %6 = alloca ptr, align 8
  %7 = alloca i32, align 4
  %8 = alloca ptr, align 8
  %9 = alloca ptr, align 8
  %10 = alloca ptr, align 8
  %11 = alloca [32 x i8], align 16
  %12 = alloca [32 x i8], align 16
  %13 = alloca i32, align 4
  store ptr %0, ptr %6, align 8, !tbaa !11
  store i32 %1, ptr %7, align 4, !tbaa !82
  store ptr %2, ptr %8, align 8, !tbaa !93
  store ptr %3, ptr %9, align 8, !tbaa !94
  store ptr %4, ptr %10, align 8, !tbaa !94
  call void @llvm.lifetime.start.p0(i64 32, ptr %11) #16
  call void @llvm.lifetime.start.p0(i64 32, ptr %12) #16
  %14 = load ptr, ptr %6, align 8, !tbaa !11
  %15 = getelementptr inbounds nuw %struct.sentinelRedisInstance, ptr %14, i32 0, i32 44
  %16 = load ptr, ptr %15, align 8, !tbaa !26
  %17 = icmp eq ptr %16, null
  br i1 %17, label %18, label %19

18:                                               ; preds = %5
  store i32 1, ptr %13, align 4
  br label %48

19:                                               ; preds = %5
  %20 = getelementptr inbounds [32 x i8], ptr %11, i64 0, i64 0
  %21 = load ptr, ptr %9, align 8, !tbaa !94
  %22 = getelementptr inbounds nuw %struct.sentinelAddr, ptr %21, i32 0, i32 2
  %23 = load i32, ptr %22, align 8, !tbaa !98
  %24 = sext i32 %23 to i64
  %25 = call i32 @ll2string(ptr noundef %20, i64 noundef 32, i64 noundef %24)
  %26 = getelementptr inbounds [32 x i8], ptr %12, i64 0, i64 0
  %27 = load ptr, ptr %10, align 8, !tbaa !94
  %28 = getelementptr inbounds nuw %struct.sentinelAddr, ptr %27, i32 0, i32 2
  %29 = load i32, ptr %28, align 8, !tbaa !98
  %30 = sext i32 %29 to i64
  %31 = call i32 @ll2string(ptr noundef %26, i64 noundef 32, i64 noundef %30)
  %32 = load ptr, ptr %6, align 8, !tbaa !11
  %33 = getelementptr inbounds nuw %struct.sentinelRedisInstance, ptr %32, i32 0, i32 44
  %34 = load ptr, ptr %33, align 8, !tbaa !26
  %35 = load ptr, ptr %6, align 8, !tbaa !11
  %36 = getelementptr inbounds nuw %struct.sentinelRedisInstance, ptr %35, i32 0, i32 1
  %37 = load ptr, ptr %36, align 8, !tbaa !23
  %38 = load i32, ptr %7, align 4, !tbaa !82
  %39 = icmp eq i32 %38, 131072
  %40 = select i1 %39, ptr @.str.39, ptr @.str.40
  %41 = load ptr, ptr %8, align 8, !tbaa !93
  %42 = load ptr, ptr %9, align 8, !tbaa !94
  %43 = call ptr @announceSentinelAddr(ptr noundef %42)
  %44 = getelementptr inbounds [32 x i8], ptr %11, i64 0, i64 0
  %45 = load ptr, ptr %10, align 8, !tbaa !94
  %46 = call ptr @announceSentinelAddr(ptr noundef %45)
  %47 = getelementptr inbounds [32 x i8], ptr %12, i64 0, i64 0
  call void (ptr, ...) @sentinelScheduleScriptExecution(ptr noundef %34, ptr noundef %37, ptr noundef %40, ptr noundef %41, ptr noundef %43, ptr noundef %44, ptr noundef %46, ptr noundef %47, ptr noundef null)
  store i32 0, ptr %13, align 4
  br label %48

48:                                               ; preds = %19, %18
  call void @llvm.lifetime.end.p0(i64 32, ptr %12) #16
  call void @llvm.lifetime.end.p0(i64 32, ptr %11) #16
  %49 = load i32, ptr %13, align 4
  switch i32 %49, label %51 [
    i32 0, label %50
    i32 1, label %50
  ]

50:                                               ; preds = %48, %48
  ret void

51:                                               ; preds = %48
  unreachable
}