; Function Attrs: nounwind uwtable
define dso_local void @sentinelCallClientReconfScript(ptr noundef readonly captures(none) %0, i32 noundef %1, ptr noundef %2, ptr noundef readonly captures(none) %3, ptr noundef readonly captures(none) %4) local_unnamed_addr #0 {
  %6 = alloca [32 x i8], align 16
  %7 = alloca [32 x i8], align 16
  call void @llvm.lifetime.start.p0(i64 32, ptr nonnull %6) #30
  call void @llvm.lifetime.start.p0(i64 32, ptr nonnull %7) #30
  %8 = getelementptr inbounds nuw i8, ptr %0, i64 328
  %9 = load ptr, ptr %8, align 8, !tbaa !23
  %10 = icmp eq ptr %9, null
  br i1 %10, label %28, label %11

11:                                               ; preds = %5
  %12 = getelementptr inbounds nuw i8, ptr %3, i64 16
  %13 = load i32, ptr %12, align 8, !tbaa !86
  %14 = sext i32 %13 to i64
  %15 = call i32 @ll2string(ptr noundef nonnull %6, i64 noundef 32, i64 noundef %14) #30
  %16 = getelementptr inbounds nuw i8, ptr %4, i64 16
  %17 = load i32, ptr %16, align 8, !tbaa !86
  %18 = sext i32 %17 to i64
  %19 = call i32 @ll2string(ptr noundef nonnull %7, i64 noundef 32, i64 noundef %18) #30
  %20 = load ptr, ptr %8, align 8, !tbaa !23
  %21 = getelementptr inbounds nuw i8, ptr %0, i64 8
  %22 = load ptr, ptr %21, align 8, !tbaa !20
  %23 = icmp eq i32 %1, 131072
  %24 = select i1 %23, ptr @.str.39, ptr @.str.40
  %25 = load i32, ptr getelementptr inbounds nuw (i8, ptr @sentinel, i64 148), align 4, !tbaa !88
  %.not.i = icmp eq i32 %25, 0
  %.in.idx.i = select i1 %.not.i, i64 8, i64 0
  %.in.i = getelementptr inbounds nuw i8, ptr %3, i64 %.in.idx.i
  %26 = load ptr, ptr %.in.i, align 8, !tbaa !87
  %.in.i10 = getelementptr inbounds nuw i8, ptr %4, i64 %.in.idx.i
  %27 = load ptr, ptr %.in.i10, align 8, !tbaa !87
  call void (ptr, ...) @sentinelScheduleScriptExecution(ptr noundef %20, ptr noundef %22, ptr noundef nonnull %24, ptr noundef %2, ptr noundef %26, ptr noundef nonnull %6, ptr noundef %27, ptr noundef nonnull %7, ptr noundef null)
  br label %28

28:                                               ; preds = %5, %11
  call void @llvm.lifetime.end.p0(i64 32, ptr nonnull %7) #30
  call void @llvm.lifetime.end.p0(i64 32, ptr nonnull %6) #30
  ret void
}